target datalayout = "e-m:e-p270:32:32-p271:32:32-p272:64:64-i64:64-i128:128-f80:128-n8:16:32:64-S128"
target triple = "x86_64-pc-linux-gnu"

%struct.slurm_conf_t = type { i64, ptr, i16, ptr, ptr, ptr, ptr, ptr, i16, ptr, ptr, ptr, ptr, ptr, ptr, ptr, i16, ptr, ptr, ptr, ptr, i16, ptr, ptr, ptr, i64, ptr, ptr, ptr, ptr, i16, ptr, ptr, i16, i32, ptr, i32, ptr, i32, i32, ptr, ptr, i64, i64, ptr, i16, i16, ptr, i32, i32, ptr, i32, ptr, i32, i16, i16, i16, ptr, i16, i16, ptr, ptr, i32, i16, i16, ptr, i32, i16, ptr, ptr, ptr, ptr, i16, ptr, ptr, ptr, ptr, i32, ptr, ptr, ptr, ptr, i16, i16, ptr, i32, i32, i32, i16, i16, ptr, ptr, i16, ptr, ptr, i32, i32, i32, i32, i32, i64, i32, i32, i16, ptr, ptr, i32, ptr, ptr, ptr, i16, i32, ptr, ptr, i16, ptr, ptr, i32, i16, ptr, ptr, ptr, ptr, i32, i32, i16, i16, i32, ptr, i16, ptr, i32, i32, i32, i32, i32, i32, ptr, i16, ptr, ptr, i32, i16, ptr, i32, i16, i16, ptr, ptr, ptr, i16, ptr, ptr, ptr, ptr, i16, i16, ptr, i16, ptr, i16, ptr, i16, ptr, i16, ptr, ptr, ptr, ptr, i16, ptr, ptr, ptr, i32, ptr, i32, ptr, ptr, i16, ptr, ptr, i32, i16, ptr, ptr, i16, i16, ptr, i16, ptr, ptr, ptr, i32, ptr, i16, i16, ptr, ptr, ptr, ptr, ptr, ptr, ptr, ptr, i16, i32, i16, ptr, ptr, ptr, ptr, i32, ptr, ptr, ptr, i16, ptr, ptr, ptr, i16, ptr, i16, ptr, i16, i16, ptr }
%struct.stat = type { i64, i64, i64, i32, i32, i32, i32, i64, i64, i64, i64, %struct.timespec, %struct.timespec, %struct.timespec, [3 x i64] }
%struct.timespec = type { i64, i64 }
%struct.node_record = type { ptr, ptr, i16, i64, i64, ptr, ptr, ptr, i16, ptr, i16, i16, i32, i32, i64, ptr, i16, i16, ptr, ptr, ptr, ptr, ptr, i64, i64, ptr, ptr, ptr, ptr, i32, ptr, ptr, i64, i64, i32, ptr, i64, ptr, i32, i16, ptr, ptr, i32, ptr, i32, i8, ptr, i32, i16, i16, ptr, i16, i64, i16, i64, ptr, i64, i32, i16, i64, i16, ptr, i16, i64, ptr, i64, i16, i32, i16, ptr, ptr, ptr, i16, i32, i16, i16, i32, ptr, i16, i32 }

@acct_db_conn = dso_local global ptr null, align 8
@slurm_conf = external global %struct.slurm_conf_t, align 8
@.str.156 = private unnamed_addr constant [14 x i8] c"%s/node_state\00", align 1
@.str.157 = private unnamed_addr constant [77 x i8] c"_accounting_mark_all_nodes_down: could not stat(%s) to record node down time\00", align 1

; Function Attrs: nounwind uwtable
define internal i32 @_accounting_mark_all_nodes_down(ptr noundef %0) #0 {
  %2 = alloca i32, align 4
  %3 = alloca ptr, align 8
  %4 = alloca ptr, align 8
  %5 = alloca %struct.stat, align 8
  %6 = alloca ptr, align 8
  %7 = alloca i32, align 4
  %8 = alloca i64, align 8
  %9 = alloca i32, align 4
  %10 = alloca i32, align 4
  store ptr %0, ptr %3, align 8
  call void @llvm.lifetime.start.p0(i64 8, ptr %4) #11
  call void @llvm.lifetime.start.p0(i64 144, ptr %5) #11
  call void @llvm.lifetime.start.p0(i64 8, ptr %6) #11
  call void @llvm.lifetime.start.p0(i64 4, ptr %7) #11
  call void @llvm.lifetime.start.p0(i64 8, ptr %8) #11
  call void @llvm.lifetime.start.p0(i64 4, ptr %9) #11
  store i32 -1, ptr %9, align 4
  %11 = load ptr, ptr getelementptr inbounds nuw (%struct.slurm_conf_t, ptr @slurm_conf, i32 0, i32 199), align 8
  %12 = call ptr (ptr, ...) @xstrdup_printf(ptr noundef @.str.156, ptr noundef %11)
  store ptr %12, ptr %4, align 8
  %13 = load ptr, ptr %4, align 8
  %14 = call i32 @stat(ptr noundef %13, ptr noundef %5) #11
  %15 = icmp ne i32 %14, 0
  br i1 %15, label %16, label %29

16:                                               ; preds = %1
  br label %17

17:                                               ; preds = %16
  br label %18

18:                                               ; preds = %17
  %19 = call i32 @get_log_level()
  %20 = icmp sge i32 %19, 5
  br i1 %20, label %21, label %23

21:                                               ; preds = %18
  %22 = load ptr, ptr %4, align 8
  call void (i32, ptr, ...) @log_var(i32 noundef 5, ptr noundef @.str.157, ptr noundef %22)
  br label %23

23:                                               ; preds = %21, %18
  br label %24

24:                                               ; preds = %23
  br label %25

25:                                               ; preds = %24
  br label %26

26:                                               ; preds = %25
  br label %27

27:                                               ; preds = %26
  %28 = call i64 @time(ptr noundef null) #11
  store i64 %28, ptr %8, align 8
  br label %33

29:                                               ; preds = %1
  %30 = getelementptr inbounds nuw %struct.stat, ptr %5, i32 0, i32 12
  %31 = getelementptr inbounds nuw %struct.timespec, ptr %30, i32 0, i32 0
  %32 = load i64, ptr %31, align 8
  store i64 %32, ptr %8, align 8
  br label %33

33:                                               ; preds = %29, %27
  call void @slurm_xfree(ptr noundef %4)
  %34 = load ptr, ptr @acct_db_conn, align 8
  %35 = load i64, ptr %8, align 8
  %36 = call i32 @acct_storage_g_flush_jobs_on_cluster(ptr noundef %34, i64 noundef %35)
  store i32 %36, ptr %9, align 4
  %37 = icmp eq i32 %36, -1
  br i1 %37, label %38, label %40

38:                                               ; preds = %33
  %39 = load i32, ptr %9, align 4
  store i32 %39, ptr %2, align 4
  store i32 1, ptr %10, align 4
  br label %65

40:                                               ; preds = %33
  store i32 0, ptr %7, align 4
  br label %41

41:                                               ; preds = %60, %40
  %42 = call ptr @next_node(ptr noundef %7)
  store ptr %42, ptr %6, align 8
  %43 = icmp ne ptr %42, null
  br i1 %43, label %44, label %63

44:                                               ; preds = %41
  %45 = load ptr, ptr %6, align 8
  %46 = getelementptr inbounds nuw %struct.node_record, ptr %45, i32 0, i32 37
  %47 = load ptr, ptr %46, align 8
  %48 = icmp ne ptr %47, null
  br i1 %48, label %50, label %49

49:                                               ; preds = %44
  br label %60

50:                                               ; preds = %44
  %51 = load ptr, ptr @acct_db_conn, align 8
  %52 = load ptr, ptr %6, align 8
  %53 = load i64, ptr %8, align 8
  %54 = load ptr, ptr %3, align 8
  %55 = load i32, ptr getelementptr inbounds nuw (%struct.slurm_conf_t, ptr @slurm_conf, i32 0, i32 173), align 8
  %56 = call i32 @clusteracct_storage_g_node_down(ptr noundef %51, ptr noundef %52, i64 noundef %53, ptr noundef %54, i32 noundef %55)
  store i32 %56, ptr %9, align 4
  %57 = icmp eq i32 %56, -1
  br i1 %57, label %58, label %59

58:                                               ; preds = %50
  br label %63

59:                                               ; preds = %50
  br label %60

60:                                               ; preds = %59, %49
  %61 = load i32, ptr %7, align 4
  %62 = add nsw i32 %61, 1
  store i32 %62, ptr %7, align 4
  br label %41, !llvm.loop !23

63:                                               ; preds = %58, %41
  %64 = load i32, ptr %9, align 4
  store i32 %64, ptr %2, align 4
  store i32 1, ptr %10, align 4
  br label %65

65:                                               ; preds = %63, %38
  call void @llvm.lifetime.end.p0(i64 4, ptr %9) #11
  call void @llvm.lifetime.end.p0(i64 8, ptr %8) #11
  call void @llvm.lifetime.end.p0(i64 4, ptr %7) #11
  call void @llvm.lifetime.end.p0(i64 8, ptr %6) #11
  call void @llvm.lifetime.end.p0(i64 144, ptr %5) #11
  call void @llvm.lifetime.end.p0(i64 8, ptr %4) #11
  %66 = load i32, ptr %2, align 4
  ret i32 %66
}