; Function Attrs: nounwind uwtable
define internal fastcc void @_accounting_mark_all_nodes_down() unnamed_addr #6 {
  %1 = alloca ptr, align 8
  %2 = alloca %struct.stat, align 8
  %3 = alloca i32, align 4
  call void @llvm.lifetime.start.p0(i64 8, ptr nonnull %1) #19
  call void @llvm.lifetime.start.p0(i64 144, ptr nonnull %2) #19
  call void @llvm.lifetime.start.p0(i64 4, ptr nonnull %3) #19
  %4 = load ptr, ptr getelementptr inbounds nuw (i8, ptr @slurm_conf, i64 1336), align 8
  %5 = tail call ptr (ptr, ...) @xstrdup_printf(ptr noundef nonnull @.str.156, ptr noundef %4) #19
  store ptr %5, ptr %1, align 8
  %6 = call i32 @stat(ptr noundef %5, ptr noundef nonnull %2) #19
  %.not = icmp eq i32 %6, 0
  br i1 %.not, label %13, label %7

7:                                                ; preds = %0
  %8 = tail call i32 @get_log_level() #19
  %9 = icmp sgt i32 %8, 4
  br i1 %9, label %10, label %11

10:                                               ; preds = %7
  tail call void (i32, ptr, ...) @log_var(i32 noundef 5, ptr noundef nonnull @.str.157, ptr noundef %5) #19
  br label %11

11:                                               ; preds = %10, %7
  %12 = tail call i64 @time(ptr noundef null) #19
  br label %16

13:                                               ; preds = %0
  %14 = getelementptr inbounds nuw i8, ptr %2, i64 88
  %15 = load i64, ptr %14, align 8
  br label %16

16:                                               ; preds = %13, %11
  %.07 = phi i64 [ %12, %11 ], [ %15, %13 ]
  call void @slurm_xfree(ptr noundef nonnull %1) #19
  %17 = load ptr, ptr @acct_db_conn, align 8
  %18 = call i32 @acct_storage_g_flush_jobs_on_cluster(ptr noundef %17, i64 noundef %.07) #19
  %19 = icmp eq i32 %18, -1
  br i1 %19, label %.loopexit, label %.preheader

.preheader:                                       ; preds = %16
  store i32 0, ptr %3, align 4
  %20 = call ptr @next_node(ptr noundef nonnull %3) #19
  %.not141 = icmp eq ptr %20, null
  br i1 %.not141, label %.loopexit, label %.lr.ph

.lr.ph:                                           ; preds = %.preheader, %29
  %21 = phi ptr [ %32, %29 ], [ %20, %.preheader ]
  %22 = getelementptr inbounds nuw i8, ptr %21, i64 272
  %23 = load ptr, ptr %22, align 8
  %.not15 = icmp eq ptr %23, null
  br i1 %.not15, label %29, label %24

24:                                               ; preds = %.lr.ph
  %25 = load ptr, ptr @acct_db_conn, align 8
  %26 = load i32, ptr getelementptr inbounds nuw (i8, ptr @slurm_conf, i64 1152), align 8
  %27 = call i32 @clusteracct_storage_g_node_down(ptr noundef %25, ptr noundef nonnull %21, i64 noundef %.07, ptr noundef nonnull @.str.49, i32 noundef %26) #19
  %28 = icmp eq i32 %27, -1
  br i1 %28, label %.loopexit, label %29

29:                                               ; preds = %24, %.lr.ph
  %30 = load i32, ptr %3, align 4
  %31 = add nsw i32 %30, 1
  store i32 %31, ptr %3, align 4
  %32 = call ptr @next_node(ptr noundef nonnull %3) #19
  %.not14 = icmp eq ptr %32, null
  br i1 %.not14, label %.loopexit, label %.lr.ph, !llvm.loop !23

.loopexit:                                        ; preds = %24, %29, %.preheader, %16
  call void @llvm.lifetime.end.p0(i64 4, ptr nonnull %3) #19
  call void @llvm.lifetime.end.p0(i64 144, ptr nonnull %2) #19
  call void @llvm.lifetime.end.p0(i64 8, ptr nonnull %1) #19
  ret void
}